target datalayout = "e-m:e-p270:32:32-p271:32:32-p272:64:64-i64:64-i128:128-f80:128-n8:16:32:64-S128"
target triple = "x86_64-pc-linux-gnu"

%struct._zval_struct = type { %union._zend_value, %union.anon, %union.anon.2 }
%union._zend_value = type { i64 }
%union.anon = type { i32 }
%union.anon.2 = type { i32 }
%struct._zend_fcall_info_cache = type { ptr, ptr, ptr, ptr, ptr }
%struct._php_sqlite3_func = type { ptr, ptr, i32, %struct._zend_fcall_info_cache, %struct._zend_fcall_info_cache, %struct._zend_fcall_info_cache }
%struct._php_sqlite3_agg_context = type { %struct._zval_struct, i64 }

; Function Attrs: nounwind uwtable
define internal void @php_sqlite3_callback_step(ptr noundef %0, i32 noundef %1, ptr noundef %2) #0 {
  %4 = alloca ptr, align 8
  %5 = alloca i32, align 4
  %6 = alloca ptr, align 8
  %7 = alloca ptr, align 8
  %8 = alloca ptr, align 8
  store ptr %0, ptr %4, align 8, !tbaa !113
  store i32 %1, ptr %5, align 4, !tbaa !63
  store ptr %2, ptr %6, align 8, !tbaa !115
  call void @llvm.lifetime.start.p0(i64 8, ptr %7) #15
  %9 = load ptr, ptr %4, align 8, !tbaa !113
  %10 = call ptr @sqlite3_user_data(ptr noundef %9)
  store ptr %10, ptr %7, align 8, !tbaa !107
  call void @llvm.lifetime.start.p0(i64 8, ptr %8) #15
  %11 = load ptr, ptr %4, align 8, !tbaa !113
  %12 = call ptr @sqlite3_aggregate_context(ptr noundef %11, i32 noundef 24)
  store ptr %12, ptr %8, align 8, !tbaa !119
  %13 = load ptr, ptr %8, align 8, !tbaa !119
  %14 = getelementptr inbounds nuw %struct._php_sqlite3_agg_context, ptr %13, i32 0, i32 1
  %15 = load i64, ptr %14, align 8, !tbaa !121
  %16 = add nsw i64 %15, 1
  store i64 %16, ptr %14, align 8, !tbaa !121
  %17 = load ptr, ptr %7, align 8, !tbaa !107
  %18 = getelementptr inbounds nuw %struct._php_sqlite3_func, ptr %17, i32 0, i32 4
  %19 = load i32, ptr %5, align 4, !tbaa !63
  %20 = load ptr, ptr %6, align 8, !tbaa !115
  %21 = load ptr, ptr %4, align 8, !tbaa !113
  %22 = call i32 @sqlite3_do_callback(ptr noundef %18, i32 noundef %19, ptr noundef %20, ptr noundef %21, i32 noundef 1)
  call void @llvm.lifetime.end.p0(i64 8, ptr %8) #15
  call void @llvm.lifetime.end.p0(i64 8, ptr %7) #15
  ret void
}