; Function Attrs: nounwind uwtable
define internal void @php_sqlite3_callback_step(ptr noundef %0, i32 noundef %1, ptr noundef captures(address_is_null) %2) #0 {
  %4 = tail call ptr @sqlite3_user_data(ptr noundef %0) #17
  %5 = tail call ptr @sqlite3_aggregate_context(ptr noundef %0, i32 noundef 24) #17
  %6 = getelementptr inbounds nuw i8, ptr %5, i64 16
  %7 = load i64, ptr %6, align 8, !tbaa !113
  %8 = add nsw i64 %7, 1
  store i64 %8, ptr %6, align 8, !tbaa !113
  %9 = getelementptr inbounds nuw i8, ptr %4, i64 64
  tail call fastcc void @sqlite3_do_callback(ptr noundef nonnull %9, i32 noundef %1, ptr noundef %2, ptr noundef %0, i32 noundef 1)
  ret void
}